target datalayout = "e-m:e-p270:32:32-p271:32:32-p272:64:64-i64:64-i128:128-f80:128-n8:16:32:64-S128"
target triple = "x86_64-pc-linux-gnu"

%struct.ffc_params_st = type { ptr, ptr, ptr, ptr, ptr, i64, i32, i32, i32, i32, i32, ptr, ptr, i32 }

@.str.9 = private unnamed_addr constant [36 x i8] c"../openssl/test/ffc_internal_test.c\00", align 1
@.str.30 = private unnamed_addr constant [34 x i8] c"dh = DH_new_by_nid(NID_ffdhe2048)\00", align 1
@.str.34 = private unnamed_addr constant [4 x i8] c"res\00", align 1
@.str.44 = private unnamed_addr constant [28 x i8] c"FFC_ERROR_PASSED_NULL_PARAM\00", align 1
@.str.46 = private unnamed_addr constant [16 x i8] c"priv = BN_new()\00", align 1
@.str.47 = private unnamed_addr constant [21 x i8] c"BN_set_word(priv, 1)\00", align 1
@.str.48 = private unnamed_addr constant [53 x i8] c"ossl_ffc_validate_private_key(params->q, priv, &res)\00", align 1
@.str.49 = private unnamed_addr constant [28 x i8] c"FFC_ERROR_PRIVKEY_TOO_SMALL\00", align 1
@.str.50 = private unnamed_addr constant [21 x i8] c"BN_set_word(priv, 0)\00", align 1
@.str.51 = private unnamed_addr constant [63 x i8] c"ossl_ffc_validate_private_key(params->q, BN_value_one(), &res)\00", align 1
@.str.52 = private unnamed_addr constant [25 x i8] c"BN_copy(priv, params->q)\00", align 1
@.str.53 = private unnamed_addr constant [28 x i8] c"FFC_ERROR_PRIVKEY_TOO_LARGE\00", align 1
@.str.54 = private unnamed_addr constant [21 x i8] c"BN_sub_word(priv, 1)\00", align 1
@.str.55 = private unnamed_addr constant [48 x i8] c"ossl_ffc_validate_private_key(NULL, priv, &res)\00", align 1
@.str.56 = private unnamed_addr constant [53 x i8] c"ossl_ffc_validate_private_key(params->q, NULL, &res)\00", align 1

; Function Attrs: nounwind uwtable
define internal i32 @ffc_private_validate_test() #0 {
  %1 = alloca i32, align 4
  %2 = alloca i32, align 4
  %3 = alloca ptr, align 8
  %4 = alloca ptr, align 8
  %5 = alloca ptr, align 8
  call void @llvm.lifetime.start.p0(i64 4, ptr %1) #3
  store i32 0, ptr %1, align 4, !tbaa !4
  call void @llvm.lifetime.start.p0(i64 4, ptr %2) #3
  store i32 -1, ptr %2, align 4, !tbaa !4
  call void @llvm.lifetime.start.p0(i64 8, ptr %3) #3
  call void @llvm.lifetime.start.p0(i64 8, ptr %4) #3
  store ptr null, ptr %4, align 8, !tbaa !8
  call void @llvm.lifetime.start.p0(i64 8, ptr %5) #3
  store ptr null, ptr %5, align 8, !tbaa !17
  %6 = call ptr @BN_new()
  store ptr %6, ptr %4, align 8, !tbaa !8
  %7 = call i32 @test_ptr(ptr noundef @.str.9, i32 noundef 546, ptr noundef @.str.46, ptr noundef %6)
  %8 = icmp ne i32 %7, 0
  br i1 %8, label %10, label %9

9:                                                ; preds = %0
  br label %150

10:                                               ; preds = %0
  %11 = call ptr @DH_new_by_nid(i32 noundef 1126)
  store ptr %11, ptr %5, align 8, !tbaa !17
  %12 = call i32 @test_ptr(ptr noundef @.str.9, i32 noundef 549, ptr noundef @.str.30, ptr noundef %11)
  %13 = icmp ne i32 %12, 0
  br i1 %13, label %15, label %14

14:                                               ; preds = %10
  br label %150

15:                                               ; preds = %10
  %16 = load ptr, ptr %5, align 8, !tbaa !17
  %17 = call ptr @ossl_dh_get0_params(ptr noundef %16)
  store ptr %17, ptr %3, align 8, !tbaa !19
  %18 = load ptr, ptr %4, align 8, !tbaa !8
  %19 = call i32 @BN_set_word(ptr noundef %18, i64 noundef 1)
  %20 = icmp ne i32 %19, 0
  %21 = zext i1 %20 to i32
  %22 = call i32 @test_true(ptr noundef @.str.9, i32 noundef 553, ptr noundef @.str.47, i32 noundef %21)
  %23 = icmp ne i32 %22, 0
  br i1 %23, label %25, label %24

24:                                               ; preds = %15
  br label %150

25:                                               ; preds = %15
  %26 = load ptr, ptr %4, align 8, !tbaa !8
  call void @BN_set_negative(ptr noundef %26, i32 noundef 1)
  %27 = load ptr, ptr %3, align 8, !tbaa !19
  %28 = getelementptr inbounds nuw %struct.ffc_params_st, ptr %27, i32 0, i32 1
  %29 = load ptr, ptr %28, align 8, !tbaa !22
  %30 = load ptr, ptr %4, align 8, !tbaa !8
  %31 = call i32 @ossl_ffc_validate_private_key(ptr noundef %29, ptr noundef %30, ptr noundef %2)
  %32 = icmp ne i32 %31, 0
  %33 = zext i1 %32 to i32
  %34 = call i32 @test_false(ptr noundef @.str.9, i32 noundef 557, ptr noundef @.str.48, i32 noundef %33)
  %35 = icmp ne i32 %34, 0
  br i1 %35, label %37, label %36

36:                                               ; preds = %25
  br label %150

37:                                               ; preds = %25
  %38 = load i32, ptr %2, align 4, !tbaa !4
  %39 = call i32 @test_int_eq(ptr noundef @.str.9, i32 noundef 559, ptr noundef @.str.49, ptr noundef @.str.34, i32 noundef 16, i32 noundef %38)
  %40 = icmp ne i32 %39, 0
  br i1 %40, label %42, label %41

41:                                               ; preds = %37
  br label %150

42:                                               ; preds = %37
  %43 = load ptr, ptr %4, align 8, !tbaa !8
  %44 = call i32 @BN_set_word(ptr noundef %43, i64 noundef 0)
  %45 = icmp ne i32 %44, 0
  %46 = zext i1 %45 to i32
  %47 = call i32 @test_true(ptr noundef @.str.9, i32 noundef 562, ptr noundef @.str.50, i32 noundef %46)
  %48 = icmp ne i32 %47, 0
  br i1 %48, label %50, label %49

49:                                               ; preds = %42
  br label %150

50:                                               ; preds = %42
  %51 = load ptr, ptr %3, align 8, !tbaa !19
  %52 = getelementptr inbounds nuw %struct.ffc_params_st, ptr %51, i32 0, i32 1
  %53 = load ptr, ptr %52, align 8, !tbaa !22
  %54 = load ptr, ptr %4, align 8, !tbaa !8
  %55 = call i32 @ossl_ffc_validate_private_key(ptr noundef %53, ptr noundef %54, ptr noundef %2)
  %56 = icmp ne i32 %55, 0
  %57 = zext i1 %56 to i32
  %58 = call i32 @test_false(ptr noundef @.str.9, i32 noundef 565, ptr noundef @.str.48, i32 noundef %57)
  %59 = icmp ne i32 %58, 0
  br i1 %59, label %61, label %60

60:                                               ; preds = %50
  br label %150

61:                                               ; preds = %50
  %62 = load i32, ptr %2, align 4, !tbaa !4
  %63 = call i32 @test_int_eq(ptr noundef @.str.9, i32 noundef 567, ptr noundef @.str.49, ptr noundef @.str.34, i32 noundef 16, i32 noundef %62)
  %64 = icmp ne i32 %63, 0
  br i1 %64, label %66, label %65

65:                                               ; preds = %61
  br label %150

66:                                               ; preds = %61
  %67 = load ptr, ptr %3, align 8, !tbaa !19
  %68 = getelementptr inbounds nuw %struct.ffc_params_st, ptr %67, i32 0, i32 1
  %69 = load ptr, ptr %68, align 8, !tbaa !22
  %70 = call ptr @BN_value_one()
  %71 = call i32 @ossl_ffc_validate_private_key(ptr noundef %69, ptr noundef %70, ptr noundef %2)
  %72 = icmp ne i32 %71, 0
  %73 = zext i1 %72 to i32
  %74 = call i32 @test_true(ptr noundef @.str.9, i32 noundef 572, ptr noundef @.str.51, i32 noundef %73)
  %75 = icmp ne i32 %74, 0
  br i1 %75, label %77, label %76

76:                                               ; preds = %66
  br label %150

77:                                               ; preds = %66
  %78 = load ptr, ptr %4, align 8, !tbaa !8
  %79 = load ptr, ptr %3, align 8, !tbaa !19
  %80 = getelementptr inbounds nuw %struct.ffc_params_st, ptr %79, i32 0, i32 1
  %81 = load ptr, ptr %80, align 8, !tbaa !22
  %82 = call ptr @BN_copy(ptr noundef %78, ptr noundef %81)
  %83 = call i32 @test_ptr(ptr noundef @.str.9, i32 noundef 575, ptr noundef @.str.52, ptr noundef %82)
  %84 = icmp ne i32 %83, 0
  br i1 %84, label %86, label %85

85:                                               ; preds = %77
  br label %150

86:                                               ; preds = %77
  %87 = load ptr, ptr %3, align 8, !tbaa !19
  %88 = getelementptr inbounds nuw %struct.ffc_params_st, ptr %87, i32 0, i32 1
  %89 = load ptr, ptr %88, align 8, !tbaa !22
  %90 = load ptr, ptr %4, align 8, !tbaa !8
  %91 = call i32 @ossl_ffc_validate_private_key(ptr noundef %89, ptr noundef %90, ptr noundef %2)
  %92 = icmp ne i32 %91, 0
  %93 = zext i1 %92 to i32
  %94 = call i32 @test_false(ptr noundef @.str.9, i32 noundef 578, ptr noundef @.str.48, i32 noundef %93)
  %95 = icmp ne i32 %94, 0
  br i1 %95, label %97, label %96

96:                                               ; preds = %86
  br label %150

97:                                               ; preds = %86
  %98 = load i32, ptr %2, align 4, !tbaa !4
  %99 = call i32 @test_int_eq(ptr noundef @.str.9, i32 noundef 580, ptr noundef @.str.53, ptr noundef @.str.34, i32 noundef 32, i32 noundef %98)
  %100 = icmp ne i32 %99, 0
  br i1 %100, label %102, label %101

101:                                              ; preds = %97
  br label %150

102:                                              ; preds = %97
  %103 = load ptr, ptr %4, align 8, !tbaa !8
  %104 = call i32 @BN_sub_word(ptr noundef %103, i64 noundef 1)
  %105 = icmp ne i32 %104, 0
  %106 = zext i1 %105 to i32
  %107 = call i32 @test_true(ptr noundef @.str.9, i32 noundef 583, ptr noundef @.str.54, i32 noundef %106)
  %108 = icmp ne i32 %107, 0
  br i1 %108, label %110, label %109

109:                                              ; preds = %102
  br label %150

110:                                              ; preds = %102
  %111 = load ptr, ptr %3, align 8, !tbaa !19
  %112 = getelementptr inbounds nuw %struct.ffc_params_st, ptr %111, i32 0, i32 1
  %113 = load ptr, ptr %112, align 8, !tbaa !22
  %114 = load ptr, ptr %4, align 8, !tbaa !8
  %115 = call i32 @ossl_ffc_validate_private_key(ptr noundef %113, ptr noundef %114, ptr noundef %2)
  %116 = icmp ne i32 %115, 0
  %117 = zext i1 %116 to i32
  %118 = call i32 @test_true(ptr noundef @.str.9, i32 noundef 586, ptr noundef @.str.48, i32 noundef %117)
  %119 = icmp ne i32 %118, 0
  br i1 %119, label %121, label %120

120:                                              ; preds = %110
  br label %150

121:                                              ; preds = %110
  %122 = load ptr, ptr %4, align 8, !tbaa !8
  %123 = call i32 @ossl_ffc_validate_private_key(ptr noundef null, ptr noundef %122, ptr noundef %2)
  %124 = icmp ne i32 %123, 0
  %125 = zext i1 %124 to i32
  %126 = call i32 @test_false(ptr noundef @.str.9, i32 noundef 589, ptr noundef @.str.55, i32 noundef %125)
  %127 = icmp ne i32 %126, 0
  br i1 %127, label %129, label %128

128:                                              ; preds = %121
  br label %150

129:                                              ; preds = %121
  %130 = load i32, ptr %2, align 4, !tbaa !4
  %131 = call i32 @test_int_eq(ptr noundef @.str.9, i32 noundef 591, ptr noundef @.str.44, ptr noundef @.str.34, i32 noundef 64, i32 noundef %130)
  %132 = icmp ne i32 %131, 0
  br i1 %132, label %134, label %133

133:                                              ; preds = %129
  br label %150

134:                                              ; preds = %129
  store i32 -1, ptr %2, align 4, !tbaa !4
  %135 = load ptr, ptr %3, align 8, !tbaa !19
  %136 = getelementptr inbounds nuw %struct.ffc_params_st, ptr %135, i32 0, i32 1
  %137 = load ptr, ptr %136, align 8, !tbaa !22
  %138 = call i32 @ossl_ffc_validate_private_key(ptr noundef %137, ptr noundef null, ptr noundef %2)
  %139 = icmp ne i32 %138, 0
  %140 = zext i1 %139 to i32
  %141 = call i32 @test_false(ptr noundef @.str.9, i32 noundef 594, ptr noundef @.str.56, i32 noundef %140)
  %142 = icmp ne i32 %141, 0
  br i1 %142, label %144, label %143

143:                                              ; preds = %134
  br label %150

144:                                              ; preds = %134
  %145 = load i32, ptr %2, align 4, !tbaa !4
  %146 = call i32 @test_int_eq(ptr noundef @.str.9, i32 noundef 596, ptr noundef @.str.44, ptr noundef @.str.34, i32 noundef 64, i32 noundef %145)
  %147 = icmp ne i32 %146, 0
  br i1 %147, label %149, label %148

148:                                              ; preds = %144
  br label %150

149:                                              ; preds = %144
  store i32 1, ptr %1, align 4, !tbaa !4
  br label %150

150:                                              ; preds = %149, %148, %143, %133, %128, %120, %109, %101, %96, %85, %76, %65, %60, %49, %41, %36, %24, %14, %9
  %151 = load ptr, ptr %5, align 8, !tbaa !17
  call void @DH_free(ptr noundef %151)
  %152 = load ptr, ptr %4, align 8, !tbaa !8
  call void @BN_free(ptr noundef %152)
  %153 = load i32, ptr %1, align 4, !tbaa !4
  call void @llvm.lifetime.end.p0(i64 8, ptr %5) #3
  call void @llvm.lifetime.end.p0(i64 8, ptr %4) #3
  call void @llvm.lifetime.end.p0(i64 8, ptr %3) #3
  call void @llvm.lifetime.end.p0(i64 4, ptr %2) #3
  call void @llvm.lifetime.end.p0(i64 4, ptr %1) #3
  ret i32 %153
}