; Function Attrs: nounwind uwtable
define internal range(i32 0, 2) i32 @ffc_private_validate_test() #0 {
  %1 = alloca i32, align 4
  call void @llvm.lifetime.start.p0(i64 4, ptr nonnull %1) #3
  store i32 -1, ptr %1, align 4, !tbaa !4
  %2 = tail call ptr @BN_new() #3
  %3 = tail call i32 @test_ptr(ptr noundef nonnull @.str.9, i32 noundef 546, ptr noundef nonnull @.str.46, ptr noundef %2) #3
  %.not = icmp eq i32 %3, 0
  br i1 %.not, label %85, label %4

4:                                                ; preds = %0
  %5 = tail call ptr @DH_new_by_nid(i32 noundef 1126) #3
  %6 = tail call i32 @test_ptr(ptr noundef nonnull @.str.9, i32 noundef 549, ptr noundef nonnull @.str.30, ptr noundef %5) #3
  %.not21 = icmp eq i32 %6, 0
  br i1 %.not21, label %85, label %7

7:                                                ; preds = %4
  %8 = tail call ptr @ossl_dh_get0_params(ptr noundef %5) #3
  %9 = tail call i32 @BN_set_word(ptr noundef %2, i64 noundef 1) #3
  %10 = icmp ne i32 %9, 0
  %11 = zext i1 %10 to i32
  %12 = tail call i32 @test_true(ptr noundef nonnull @.str.9, i32 noundef 553, ptr noundef nonnull @.str.47, i32 noundef %11) #3
  %.not22 = icmp eq i32 %12, 0
  br i1 %.not22, label %85, label %13

13:                                               ; preds = %7
  tail call void @BN_set_negative(ptr noundef %2, i32 noundef 1) #3
  %14 = getelementptr inbounds nuw i8, ptr %8, i64 8
  %15 = load ptr, ptr %14, align 8, !tbaa !17
  %16 = call i32 @ossl_ffc_validate_private_key(ptr noundef %15, ptr noundef %2, ptr noundef nonnull %1) #3
  %17 = icmp ne i32 %16, 0
  %18 = zext i1 %17 to i32
  %19 = call i32 @test_false(ptr noundef nonnull @.str.9, i32 noundef 557, ptr noundef nonnull @.str.48, i32 noundef %18) #3
  %.not23 = icmp eq i32 %19, 0
  br i1 %.not23, label %85, label %20

20:                                               ; preds = %13
  %21 = load i32, ptr %1, align 4, !tbaa !4
  %22 = call i32 @test_int_eq(ptr noundef nonnull @.str.9, i32 noundef 559, ptr noundef nonnull @.str.49, ptr noundef nonnull @.str.34, i32 noundef 16, i32 noundef %21) #3
  %.not24 = icmp eq i32 %22, 0
  br i1 %.not24, label %85, label %23

23:                                               ; preds = %20
  %24 = call i32 @BN_set_word(ptr noundef %2, i64 noundef 0) #3
  %25 = icmp ne i32 %24, 0
  %26 = zext i1 %25 to i32
  %27 = call i32 @test_true(ptr noundef nonnull @.str.9, i32 noundef 562, ptr noundef nonnull @.str.50, i32 noundef %26) #3
  %.not25 = icmp eq i32 %27, 0
  br i1 %.not25, label %85, label %28

28:                                               ; preds = %23
  %29 = load ptr, ptr %14, align 8, !tbaa !17
  %30 = call i32 @ossl_ffc_validate_private_key(ptr noundef %29, ptr noundef %2, ptr noundef nonnull %1) #3
  %31 = icmp ne i32 %30, 0
  %32 = zext i1 %31 to i32
  %33 = call i32 @test_false(ptr noundef nonnull @.str.9, i32 noundef 565, ptr noundef nonnull @.str.48, i32 noundef %32) #3
  %.not26 = icmp eq i32 %33, 0
  br i1 %.not26, label %85, label %34

34:                                               ; preds = %28
  %35 = load i32, ptr %1, align 4, !tbaa !4
  %36 = call i32 @test_int_eq(ptr noundef nonnull @.str.9, i32 noundef 567, ptr noundef nonnull @.str.49, ptr noundef nonnull @.str.34, i32 noundef 16, i32 noundef %35) #3
  %.not27 = icmp eq i32 %36, 0
  br i1 %.not27, label %85, label %37

37:                                               ; preds = %34
  %38 = load ptr, ptr %14, align 8, !tbaa !17
  %39 = call ptr @BN_value_one() #3
  %40 = call i32 @ossl_ffc_validate_private_key(ptr noundef %38, ptr noundef %39, ptr noundef nonnull %1) #3
  %41 = icmp ne i32 %40, 0
  %42 = zext i1 %41 to i32
  %43 = call i32 @test_true(ptr noundef nonnull @.str.9, i32 noundef 572, ptr noundef nonnull @.str.51, i32 noundef %42) #3
  %.not28 = icmp eq i32 %43, 0
  br i1 %.not28, label %85, label %44

44:                                               ; preds = %37
  %45 = load ptr, ptr %14, align 8, !tbaa !17
  %46 = call ptr @BN_copy(ptr noundef %2, ptr noundef %45) #3
  %47 = call i32 @test_ptr(ptr noundef nonnull @.str.9, i32 noundef 575, ptr noundef nonnull @.str.52, ptr noundef %46) #3
  %.not29 = icmp eq i32 %47, 0
  br i1 %.not29, label %85, label %48

48:                                               ; preds = %44
  %49 = load ptr, ptr %14, align 8, !tbaa !17
  %50 = call i32 @ossl_ffc_validate_private_key(ptr noundef %49, ptr noundef %2, ptr noundef nonnull %1) #3
  %51 = icmp ne i32 %50, 0
  %52 = zext i1 %51 to i32
  %53 = call i32 @test_false(ptr noundef nonnull @.str.9, i32 noundef 578, ptr noundef nonnull @.str.48, i32 noundef %52) #3
  %.not30 = icmp eq i32 %53, 0
  br i1 %.not30, label %85, label %54

54:                                               ; preds = %48
  %55 = load i32, ptr %1, align 4, !tbaa !4
  %56 = call i32 @test_int_eq(ptr noundef nonnull @.str.9, i32 noundef 580, ptr noundef nonnull @.str.53, ptr noundef nonnull @.str.34, i32 noundef 32, i32 noundef %55) #3
  %.not31 = icmp eq i32 %56, 0
  br i1 %.not31, label %85, label %57

57:                                               ; preds = %54
  %58 = call i32 @BN_sub_word(ptr noundef %2, i64 noundef 1) #3
  %59 = icmp ne i32 %58, 0
  %60 = zext i1 %59 to i32
  %61 = call i32 @test_true(ptr noundef nonnull @.str.9, i32 noundef 583, ptr noundef nonnull @.str.54, i32 noundef %60) #3
  %.not32 = icmp eq i32 %61, 0
  br i1 %.not32, label %85, label %62

62:                                               ; preds = %57
  %63 = load ptr, ptr %14, align 8, !tbaa !17
  %64 = call i32 @ossl_ffc_validate_private_key(ptr noundef %63, ptr noundef %2, ptr noundef nonnull %1) #3
  %65 = icmp ne i32 %64, 0
  %66 = zext i1 %65 to i32
  %67 = call i32 @test_true(ptr noundef nonnull @.str.9, i32 noundef 586, ptr noundef nonnull @.str.48, i32 noundef %66) #3
  %.not33 = icmp eq i32 %67, 0
  br i1 %.not33, label %85, label %68

68:                                               ; preds = %62
  %69 = call i32 @ossl_ffc_validate_private_key(ptr noundef null, ptr noundef %2, ptr noundef nonnull %1) #3
  %70 = icmp ne i32 %69, 0
  %71 = zext i1 %70 to i32
  %72 = call i32 @test_false(ptr noundef nonnull @.str.9, i32 noundef 589, ptr noundef nonnull @.str.55, i32 noundef %71) #3
  %.not34 = icmp eq i32 %72, 0
  br i1 %.not34, label %85, label %73

73:                                               ; preds = %68
  %74 = load i32, ptr %1, align 4, !tbaa !4
  %75 = call i32 @test_int_eq(ptr noundef nonnull @.str.9, i32 noundef 591, ptr noundef nonnull @.str.44, ptr noundef nonnull @.str.34, i32 noundef 64, i32 noundef %74) #3
  %.not35 = icmp eq i32 %75, 0
  br i1 %.not35, label %85, label %76

76:                                               ; preds = %73
  store i32 -1, ptr %1, align 4, !tbaa !4
  %77 = load ptr, ptr %14, align 8, !tbaa !17
  %78 = call i32 @ossl_ffc_validate_private_key(ptr noundef %77, ptr noundef null, ptr noundef nonnull %1) #3
  %79 = icmp ne i32 %78, 0
  %80 = zext i1 %79 to i32
  %81 = call i32 @test_false(ptr noundef nonnull @.str.9, i32 noundef 594, ptr noundef nonnull @.str.56, i32 noundef %80) #3
  %.not36 = icmp eq i32 %81, 0
  br i1 %.not36, label %85, label %82

82:                                               ; preds = %76
  %83 = load i32, ptr %1, align 4, !tbaa !4
  %84 = call i32 @test_int_eq(ptr noundef nonnull @.str.9, i32 noundef 596, ptr noundef nonnull @.str.44, ptr noundef nonnull @.str.34, i32 noundef 64, i32 noundef %83) #3
  %.not37 = icmp ne i32 %84, 0
  %spec.select = zext i1 %.not37 to i32
  br label %85

85:                                               ; preds = %82, %76, %73, %68, %62, %57, %54, %48, %44, %37, %34, %28, %23, %20, %13, %7, %4, %0
  %.020 = phi i32 [ 0, %76 ], [ 0, %73 ], [ 0, %68 ], [ 0, %62 ], [ 0, %57 ], [ 0, %54 ], [ 0, %48 ], [ 0, %44 ], [ 0, %37 ], [ 0, %34 ], [ 0, %28 ], [ 0, %23 ], [ 0, %20 ], [ 0, %13 ], [ 0, %7 ], [ 0, %4 ], [ 0, %0 ], [ %spec.select, %82 ]
  %.0 = phi ptr [ %5, %76 ], [ %5, %73 ], [ %5, %68 ], [ %5, %62 ], [ %5, %57 ], [ %5, %54 ], [ %5, %48 ], [ %5, %44 ], [ %5, %37 ], [ %5, %34 ], [ %5, %28 ], [ %5, %23 ], [ %5, %20 ], [ %5, %13 ], [ %5, %7 ], [ %5, %4 ], [ null, %0 ], [ %5, %82 ]
  call void @DH_free(ptr noundef %.0) #3
  call void @BN_free(ptr noundef %2) #3
  call void @llvm.lifetime.end.p0(i64 4, ptr nonnull %1) #3
  ret i32 %.020
}